target datalayout = "e-m:e-p270:32:32-p271:32:32-p272:64:64-i64:64-i128:128-f80:128-n8:16:32:64-S128"
target triple = "x86_64-pc-linux-gnu"

%struct._GArray = type { ptr, i32 }

@file_type_subtype_table_arr = internal global ptr null, align 8

; Function Attrs: null_pointer_is_valid sspstrong uwtable
define zeroext i1 @wtap_dump_can_write(ptr noundef %0, i32 noundef %1) #0 {
  %3 = alloca i1, align 1
  %4 = alloca ptr, align 8
  %5 = alloca i32, align 4
  %6 = alloca i32, align 4
  %7 = alloca i32, align 4
  store ptr %0, ptr %4, align 8
  store i32 %1, ptr %5, align 4
  call void @llvm.lifetime.start.p0(i64 4, ptr %6) #12
  store i32 0, ptr %6, align 4
  br label %8

8:                                                ; preds = %21, %2
  %9 = load i32, ptr %6, align 4
  %10 = load ptr, ptr @file_type_subtype_table_arr, align 8
  %11 = getelementptr inbounds nuw %struct._GArray, ptr %10, i32 0, i32 1
  %12 = load i32, ptr %11, align 8
  %13 = icmp slt i32 %9, %12
  br i1 %13, label %14, label %24

14:                                               ; preds = %8
  %15 = load i32, ptr %6, align 4
  %16 = load ptr, ptr %4, align 8
  %17 = load i32, ptr %5, align 4
  %18 = call zeroext i1 @wtap_dump_can_write_format(i32 noundef %15, ptr noundef %16, i32 noundef %17)
  br i1 %18, label %19, label %20

19:                                               ; preds = %14
  store i1 true, ptr %3, align 1
  store i32 1, ptr %7, align 4
  br label %25

20:                                               ; preds = %14
  br label %21

21:                                               ; preds = %20
  %22 = load i32, ptr %6, align 4
  %23 = add i32 %22, 1
  store i32 %23, ptr %6, align 4
  br label %8, !llvm.loop !22

24:                                               ; preds = %8
  store i1 false, ptr %3, align 1
  store i32 1, ptr %7, align 4
  br label %25

25:                                               ; preds = %24, %19
  call void @llvm.lifetime.end.p0(i64 4, ptr %6) #12
  %26 = load i1, ptr %3, align 1
  ret i1 %26
}