; Function Attrs: null_pointer_is_valid sspstrong uwtable
define noundef zeroext i1 @wtap_dump_can_write(ptr noundef readonly captures(none) %0, i32 noundef %1) local_unnamed_addr #0 {
  %3 = load ptr, ptr @file_type_subtype_table_arr, align 8
  %4 = getelementptr inbounds nuw i8, ptr %3, i64 8
  %5 = load i32, ptr %4, align 8
  %6 = icmp sgt i32 %5, 0
  br i1 %6, label %.lr.ph, label %._crit_edge

7:                                                ; preds = %.lr.ph
  %8 = add nuw nsw i32 %.06, 1
  %9 = load ptr, ptr @file_type_subtype_table_arr, align 8
  %10 = getelementptr inbounds nuw i8, ptr %9, i64 8
  %11 = load i32, ptr %10, align 8
  %12 = icmp slt i32 %8, %11
  br i1 %12, label %.lr.ph, label %._crit_edge, !llvm.loop !25

.lr.ph:                                           ; preds = %2, %7
  %.06 = phi i32 [ %8, %7 ], [ 0, %2 ]
  %13 = tail call fastcc zeroext i1 @wtap_dump_can_write_format(i32 noundef %.06, ptr noundef %0, i32 noundef %1)
  br i1 %13, label %._crit_edge, label %7

._crit_edge:                                      ; preds = %.lr.ph, %7, %2
  %.lcssa = phi i1 [ false, %2 ], [ %13, %7 ], [ %13, %.lr.ph ]
  ret i1 %.lcssa
}